(lp1
(lp2
I75
aI38
aI31
aI1
aa(lp3
I19
aI12
aI6
aI0
aa(lp4
I113
aI78
aI42
aI4
aa(lp5
I62
aI26
aI26
aI3
aa(lp6
I30
aI19
aI18
aI3
aa(lp7
I94
aI48
aI44
aI1
aa(lp8
I83
aI51
aI23
aI0
aa(lp9
I93
aI39
aI35
aI0
aa(lp10
I46
aI26
aI23
aI0
aa(lp11
I56
aI37
aI22
aI1
aa(lp12
I54
aI33
aI15
aI1
aa(lp13
I62
aI38
aI29
aI1
aa(lp14
I41
aI22
aI16
aI1
aa(lp15
I70
aI51
aI13
aI0
aa(lp16
I29
aI17
aI8
aI1
aa(lp17
I19
aI12
aI10
aI1
aa(lp18
I8
aI5
aI5
aI1
aa(lp19
I35
aI21
aI12
aI4
aa(lp20
I165
aI97
aI78
aI10
aa(lp21
I117
aI80
aI31
aI0
aa(lp22
I27
aI10
aI14
aI0
aa(lp23
I13
aI9
aI6
aI1
aa(lp24
I42
aI21
aI19
aI2
aa(lp25
I60
aI38
aI30
aI5
aa(lp26
I9
aI2
aI4
aI0
aa(lp27
I56
aI39
aI22
aI1
aa(lp28
I72
aI38
aI26
aI0
aa(lp29
I161
aI116
aI68
aI2
aa(lp30
I24
aI9
aI11
aI2
aa(lp31
I47
aI21
aI17
aI0
aa(lp32
I94
aI65
aI35
aI0
aa(lp33
I9
aI6
aI4
aI1
aa(lp34
I58
aI30
aI16
aI0
aa(lp35
I63
aI37
aI20
aI0
aa(lp36
I104
aI71
aI47
aI1
aa(lp37
I7
aI5
aI2
aI0
aa(lp38
I24
aI12
aI12
aI1
aa(lp39
I49
aI25
aI20
aI2
aa(lp40
I35
aI28
aI7
aI1
aa(lp41
I57
aI36
aI21
aI0
aa(lp42
I54
aI35
aI21
aI2
aa(lp43
I60
aI30
aI15
aI0
aa(lp44
I57
aI30
aI20
aI3
aa(lp45
I31
aI22
aI11
aI0
aa(lp46
I21
aI8
aI7
aI0
aa(lp47
I149
aI100
aI65
aI4
aa(lp48
I32
aI22
aI12
aI0
aa(lp49
I5
aI5
aI3
aI2
aa(lp50
I22
aI21
aI16
aI2
aa(lp51
I71
aI62
aI7
aI0
aa(lp52
I68
aI33
aI31
aI1
aa(lp53
I74
aI54
aI17
aI0
aa(lp54
I69
aI36
aI28
aI1
aa(lp55
I38
aI29
aI13
aI2
aa(lp56
I50
aI22
aI15
aI0
aa(lp57
I11
aI5
aI3
aI0
aa(lp58
I48
aI31
aI16
aI0
aa(lp59
I18
aI10
aI3
aI0
aa(lp60
I61
aI33
aI28
aI0
aa(lp61
I39
aI13
aI19
aI2
aa(lp62
I149
aI99
aI58
aI1
aa(lp63
I29
aI19
aI16
aI0
aa(lp64
I33
aI21
aI9
aI0
aa(lp65
I46
aI31
aI18
aI0
aa(lp66
I37
aI20
aI18
aI0
aa(lp67
I76
aI49
aI40
aI0
aa(lp68
I37
aI22
aI12
aI3
aa(lp69
I103
aI63
aI31
aI1
aa(lp70
I278
aI153
aI89
aI3
aa(lp71
I51
aI23
aI20
aI0
aa(lp72
I26
aI18
aI13
aI1
aa(lp73
I18
aI12
aI5
aI2
aa(lp74
I59
aI40
aI22
aI1
aa(lp75
I34
aI18
aI12
aI0
aa(lp76
I38
aI13
aI20
aI1
aa(lp77
I15
aI6
aI7
aI0
aa(lp78
I26
aI15
aI13
aI0
aa(lp79
I30
aI19
aI14
aI0
aa(lp80
I112
aI67
aI35
aI0
aa(lp81
I37
aI28
aI13
aI1
aa(lp82
I92
aI71
aI42
aI1
aa(lp83
I647
aI450
aI247
aI10
aa(lp84
I29
aI10
aI12
aI0
aa(lp85
I48
aI30
aI15
aI2
aa(lp86
I5
aI8
aI4
aI2
aa(lp87
I29
aI17
aI12
aI0
aa(lp88
I131
aI69
aI51
aI0
aa(lp89
I16
aI8
aI5
aI1
aa(lp90
I26
aI19
aI9
aI0
aa(lp91
I23
aI17
aI13
aI1
aa(lp92
I20
aI11
aI5
aI0
aa(lp93
I106
aI60
aI46
aI2
aa(lp94
I14
aI11
aI7
aI2
aa(lp95
I34
aI16
aI17
aI0
aa(lp96
I12
aI6
aI7
aI1
aa(lp97
I143
aI95
aI58
aI3
aa(lp98
I46
aI27
aI22
aI2
aa(lp99
I29
aI13
aI10
aI0
aa(lp100
I17
aI9
aI10
aI1
aa(lp101
I51
aI30
aI22
aI1
aa(lp102
I38
aI21
aI16
aI0
aa(lp103
I83
aI57
aI32
aI1
aa(lp104
I44
aI28
aI23
aI1
aa(lp105
I98
aI72
aI48
aI1
aa(lp106
I28
aI18
aI13
aI3
aa(lp107
I378
aI223
aI103
aI7
aa(lp108
I73
aI41
aI29
aI0
aa(lp109
I224
aI143
aI87
aI4
aa(lp110
I83
aI70
aI27
aI7
aa(lp111
I102
aI69
aI46
aI1
aa(lp112
I66
aI41
aI27
aI0
aa(lp113
I114
aI72
aI45
aI1
aa(lp114
I23
aI14
aI11
aI0
aa(lp115
I89
aI45
aI31
aI3
aa(lp116
I49
aI37
aI19
aI0
aa(lp117
I40
aI22
aI14
aI1
aa(lp118
I81
aI43
aI28
aI0
aa(lp119
I46
aI34
aI24
aI0
aa(lp120
I70
aI50
aI25
aI2
aa(lp121
I92
aI68
aI24
aI0
aa(lp122
I12
aI5
aI7
aI0
aa(lp123
I43
aI31
aI11
aI1
aa(lp124
I81
aI44
aI25
aI2
aa(lp125
I72
aI45
aI35
aI1
aa(lp126
I35
aI26
aI19
aI6
aa(lp127
I37
aI10
aI13
aI1
aa(lp128
I103
aI62
aI43
aI3
aa(lp129
I177
aI109
aI96
aI13
aa(lp130
I15
aI11
aI6
aI0
aa(lp131
I136
aI78
aI48
aI1
aa(lp132
I78
aI56
aI19
aI1
aa(lp133
I5
aI5
aI4
aI1
aa(lp134
I30
aI17
aI14
aI0
aa(lp135
I5
aI5
aI3
aI2
aa(lp136
I72
aI44
aI24
aI2
aa(lp137
I15
aI5
aI5
aI0
aa(lp138
I73
aI40
aI35
aI3
aa(lp139
I32
aI19
aI16
aI0
aa(lp140
I266
aI211
aI66
aI4
aa(lp141
I11
aI11
aI7
aI1
aa(lp142
I36
aI17
aI16
aI3
aa(lp143
I92
aI51
aI27
aI0
aa(lp144
I186
aI117
aI68
aI3
aa(lp145
I71
aI40
aI24
aI0
aa(lp146
I17
aI5
aI6
aI0
aa(lp147
I36
aI17
aI14
aI1
aa(lp148
I26
aI14
aI13
aI1
aa(lp149
I100
aI57
aI62
aI3
aa(lp150
I66
aI37
aI19
aI0
aa(lp151
I47
aI18
aI20
aI0
aa(lp152
I34
aI20
aI19
aI0
aa(lp153
I134
aI75
aI44
aI2
aa(lp154
I59
aI36
aI16
aI1
aa(lp155
I206
aI124
aI79
aI6
aa(lp156
I100
aI77
aI38
aI0
aa(lp157
I21
aI17
aI12
aI3
aa(lp158
I55
aI32
aI19
aI1
aa(lp159
I53
aI41
aI24
aI2
aa(lp160
I62
aI37
aI15
aI1
aa(lp161
I19
aI10
aI7
aI0
aa(lp162
I36
aI20
aI16
aI1
aa(lp163
I97
aI49
aI33
aI1
aa(lp164
I14
aI7
aI6
aI1
aa(lp165
I82
aI49
aI27
aI2
aa(lp166
I45
aI33
aI22
aI0
aa(lp167
I8
aI4
aI3
aI0
aa(lp168
I34
aI20
aI17
aI0
aa(lp169
I37
aI26
aI18
aI1
aa(lp170
I10
aI6
aI7
aI1
aa(lp171
I12
aI10
aI9
aI3
aa(lp172
I88
aI71
aI29
aI2
aa(lp173
I20
aI9
aI6
aI0
aa(lp174
I95
aI52
aI31
aI1
aa(lp175
I29
aI12
aI11
aI0
aa(lp176
I202
aI133
aI55
aI0
aa(lp177
I78
aI60
aI22
aI1
aa(lp178
I32
aI17
aI15
aI2
aa(lp179
I17
aI12
aI7
aI0
aa(lp180
I67
aI39
aI28
aI2
aa(lp181
I13
aI8
aI4
aI0
aa(lp182
I16
aI6
aI11
aI1
aa(lp183
I84
aI44
aI36
aI2
aa(lp184
I12
aI4
aI5
aI0
aa(lp185
I21
aI15
aI11
aI1
aa(lp186
I21
aI16
aI8
aI0
aa(lp187
I71
aI44
aI35
aI2
aa(lp188
I41
aI27
aI20
aI0
aa(lp189
I44
aI29
aI18
aI2
aa(lp190
I205
aI107
aI75
aI5
aa(lp191
I16
aI9
aI7
aI0
aa(lp192
I47
aI40
aI24
aI1
aa(lp193
I27
aI15
aI10
aI0
aa(lp194
I84
aI47
aI25
aI1
aa(lp195
I17
aI12
aI9
aI1
aa(lp196
I35
aI17
aI18
aI0
aa(lp197
I712
aI473
aI265
aI19
aa(lp198
I37
aI25
aI12
aI0
aa(lp199
I139
aI86
aI40
aI3
aa(lp200
I30
aI17
aI16
aI0
aa(lp201
I210
aI113
aI72
aI6
aa(lp202
I19
aI13
aI8
aI0
aa(lp203
I91
aI65
aI30
aI0
aa(lp204
I80
aI48
aI37
aI6
aa(lp205
I54
aI24
aI19
aI0
aa(lp206
I83
aI50
aI36
aI1
aa(lp207
I12
aI7
aI4
aI0
aa(lp208
I0
aI0
aI6
aI1
aa(lp209
I84
aI57
aI28
aI2
aa(lp210
I40
aI32
aI12
aI0
aa(lp211
I8
aI4
aI4
aI0
aa(lp212
I70
aI43
aI22
aI0
aa(lp213
I78
aI52
aI8
aI0
aa(lp214
I166
aI96
aI57
aI1
aa(lp215
I28
aI11
aI11
aI0
aa(lp216
I99
aI58
aI29
aI0
aa(lp217
I107
aI52
aI39
aI1
aa(lp218
I18
aI5
aI7
aI0
aa(lp219
I16
aI9
aI7
aI1
aa(lp220
I47
aI24
aI22
aI2
aa(lp221
I80
aI46
aI24
aI1
aa(lp222
I51
aI30
aI17
aI2
aa(lp223
I56
aI31
aI24
aI2
aa(lp224
I106
aI67
aI35
aI3
aa(lp225
I63
aI35
aI25
aI1
aa(lp226
I70
aI52
aI38
aI7
aa(lp227
I4
aI5
aI3
aI1
aa(lp228
I91
aI61
aI45
aI1
aa(lp229
I84
aI55
aI42
aI0
aa(lp230
I3
aI0
aI2
aI0
aa(lp231
I104
aI55
aI30
aI1
aa(lp232
I63
aI39
aI22
aI4
aa(lp233
I99
aI62
aI19
aI0
aa(lp234
I47
aI26
aI20
aI3
aa(lp235
I29
aI24
aI10
aI0
aa(lp236
I38
aI26
aI11
aI1
aa(lp237
I43
aI18
aI16
aI1
aa(lp238
I81
aI42
aI32
aI0
aa(lp239
I93
aI48
aI38
aI2
aa(lp240
I60
aI34
aI22
aI0
aa(lp241
I68
aI45
aI19
aI0
aa(lp242
I59
aI35
aI22
aI1
aa(lp243
I24
aI11
aI9
aI0
aa(lp244
I18
aI12
aI6
aI0
aa(lp245
I9
aI3
aI3
aI0
aa(lp246
I53
aI29
aI20
aI1
aa(lp247
I24
aI14
aI8
aI0
aa(lp248
I18
aI6
aI10
aI0
aa(lp249
I15
aI7
aI6
aI0
aa(lp250
I101
aI65
aI33
aI3
aa(lp251
I19
aI11
aI5
aI0
aa(lp252
I35
aI14
aI13
aI0
aa(lp253
I48
aI31
aI23
aI0
aa(lp254
I87
aI51
aI30
aI1
aa(lp255
I19
aI6
aI7
aI0
aa(lp256
I52
aI36
aI25
aI2
aa(lp257
I192
aI113
aI56
aI3
aa(lp258
I49
aI31
aI17
aI0
aa(lp259
I94
aI70
aI27
aI1
aa(lp260
I23
aI12
aI13
aI2
aa(lp261
I57
aI38
aI27
aI2
aa(lp262
I37
aI19
aI17
aI1
aa(lp263
I242
aI157
aI83
aI10
aa(lp264
I22
aI16
aI12
aI2
aa(lp265
I11
aI7
aI7
aI1
aa(lp266
I368
aI204
aI105
aI10
aa(lp267
I67
aI43
aI30
aI2
aa(lp268
I110
aI81
aI46
aI1
aa(lp269
I25
aI14
aI8
aI0
aa(lp270
I34
aI21
aI18
aI0
aa(lp271
I8
aI2
aI3
aI0
aa(lp272
I52
aI21
aI23
aI2
aa(lp273
I53
aI33
aI17
aI0
aa(lp274
I41
aI21
aI18
aI0
aa(lp275
I60
aI40
aI23
aI0
aa(lp276
I37
aI20
aI13
aI0
aa(lp277
I20
aI13
aI10
aI1
aa(lp278
I20
aI13
aI5
aI0
aa(lp279
I20
aI8
aI8
aI0
aa(lp280
I20
aI8
aI9
aI0
aa(lp281
I59
aI33
aI17
aI2
aa(lp282
I46
aI26
aI15
aI0
aa(lp283
I17
aI11
aI5
aI0
aa(lp284
I93
aI61
aI32
aI0
aa(lp285
I34
aI22
aI9
aI1
aa(lp286
I46
aI26
aI20
aI2
aa(lp287
I94
aI69
aI30
aI1
aa(lp288
I42
aI27
aI17
aI1
aa(lp289
I40
aI29
aI20
aI4
aa(lp290
I122
aI95
aI67
aI0
aa(lp291
I30
aI17
aI10
aI1
aa(lp292
I11
aI8
aI6
aI0
aa(lp293
I118
aI75
aI33
aI4
aa(lp294
I54
aI19
aI28
aI1
aa(lp295
I22
aI14
aI10
aI2
aa(lp296
I25
aI15
aI11
aI2
aa(lp297
I119
aI79
aI52
aI0
aa(lp298
I89
aI62
aI42
aI1
aa(lp299
I133
aI69
aI44
aI2
aa(lp300
I62
aI37
aI22
aI1
aa(lp301
I84
aI55
aI31
aI1
aa(lp302
I26
aI19
aI13
aI0
aa(lp303
I47
aI27
aI16
aI2
aa(lp304
I40
aI21
aI17
aI0
aa(lp305
I44
aI31
aI18
aI0
aa(lp306
I41
aI25
aI16
aI1
aa(lp307
I133
aI76
aI47
aI7
aa(lp308
I52
aI34
aI14
aI0
aa(lp309
I269
aI199
aI86
aI1
aa(lp310
I90
aI59
aI51
aI3
aa(lp311
I44
aI33
aI20
aI0
aa(lp312
I9
aI6
aI4
aI0
aa(lp313
I97
aI58
aI33
aI1
aa(lp314
I48
aI28
aI25
aI0
aa(lp315
I42
aI29
aI21
aI3
aa(lp316
I17
aI10
aI4
aI0
aa(lp317
I66
aI36
aI20
aI1
aa(lp318
I84
aI42
aI29
aI0
aa(lp319
I63
aI36
aI21
aI1
aa(lp320
I43
aI25
aI13
aI0
aa(lp321
I83
aI50
aI24
aI0
aa(lp322
I52
aI31
aI22
aI1
aa(lp323
I38
aI22
aI12
aI0
aa(lp324
I44
aI21
aI19
aI0
aa(lp325
I263
aI155
aI103
aI1
aa(lp326
I12
aI8
aI7
aI0
aa(lp327
I24
aI16
aI9
aI1
aa(lp328
I34
aI22
aI18
aI1
aa(lp329
I20
aI15
aI11
aI1
aa(lp330
I30
aI21
aI7
aI0
aa(lp331
I40
aI15
aI13
aI1
aa(lp332
I40
aI20
aI20
aI0
aa(lp333
I27
aI13
aI9
aI0
aa(lp334
I36
aI21
aI12
aI1
aa(lp335
I36
aI20
aI16
aI0
aa(lp336
I16
aI9
aI8
aI1
aa(lp337
I40
aI21
aI17
aI0
aa(lp338
I32
aI24
aI9
aI0
aa(lp339
I7
aI4
aI4
aI0
aa(lp340
I56
aI34
aI24
aI1
aa(lp341
I49
aI33
aI14
aI2
aa(lp342
I109
aI75
aI34
aI5
aa(lp343
I42
aI27
aI14
aI0
aa(lp344
I41
aI29
aI21
aI0
aa(lp345
I125
aI71
aI35
aI1
aa(lp346
I31
aI17
aI12
aI0
aa(lp347
I15
aI7
aI7
aI0
aa(lp348
I115
aI71
aI41
aI5
aa(lp349
I122
aI87
aI42
aI0
aa(lp350
I32
aI21
aI12
aI1
aa(lp351
I14
aI8
aI4
aI0
aa(lp352
I81
aI59
aI40
aI1
aa(lp353
I96
aI49
aI33
aI0
aa(lp354
I37
aI25
aI17
aI0
aa(lp355
I95
aI62
aI44
aI0
aa(lp356
I199
aI121
aI66
aI3
aa(lp357
I30
aI20
aI15
aI3
aa(lp358
I33
aI23
aI16
aI1
aa(lp359
I73
aI46
aI16
aI0
aa(lp360
I113
aI64
aI43
aI3
aa(lp361
I58
aI32
aI28
aI2
aa(lp362
I50
aI23
aI13
aI3
aa(lp363
I57
aI56
aI15
aI1
aa(lp364
I62
aI28
aI19
aI2
aa(lp365
I86
aI48
aI32
aI1
aa(lp366
I229
aI133
aI105
aI4
aa(lp367
I67
aI52
aI36
aI8
aa(lp368
I27
aI16
aI14
aI2
aa(lp369
I23
aI17
aI7
aI1
aa(lp370
I16
aI8
aI6
aI0
aa(lp371
I119
aI63
aI51
aI1
aa(lp372
I43
aI34
aI22
aI1
aa(lp373
I55
aI40
aI16
aI0
aa(lp374
I44
aI33
aI9
aI0
aa(lp375
I58
aI32
aI13
aI0
aa(lp376
I22
aI10
aI13
aI0
aa(lp377
I134
aI77
aI42
aI0
aa(lp378
I45
aI29
aI22
aI1
aa(lp379
I44
aI27
aI10
aI0
aa(lp380
I63
aI31
aI30
aI1
aa(lp381
I98
aI76
aI33
aI0
aa(lp382
I61
aI34
aI19
aI0
aa(lp383
I31
aI15
aI14
aI0
aa(lp384
I40
aI28
aI6
aI0
aa(lp385
I20
aI10
aI6
aI0
aa(lp386
I36
aI24
aI16
aI2
aa(lp387
I97
aI68
aI40
aI1
aa(lp388
I65
aI38
aI17
aI1
aa.