(lp1
(lp2
I19
aI11
aI6
aI0
aa(lp3
I62
aI27
aI26
aI3
aa(lp4
I83
aI49
aI23
aI1
aa(lp5
I56
aI37
aI22
aI1
aa(lp6
I54
aI33
aI15
aI1
aa(lp7
I62
aI38
aI29
aI1
aa(lp8
I29
aI13
aI8
aI0
aa(lp9
I19
aI12
aI10
aI1
aa(lp10
I8
aI5
aI5
aI1
aa(lp11
I35
aI21
aI12
aI4
aa(lp12
I117
aI78
aI31
aI0
aa(lp13
I27
aI10
aI14
aI0
aa(lp14
I13
aI9
aI6
aI1
aa(lp15
I42
aI21
aI19
aI2
aa(lp16
I60
aI38
aI30
aI6
aa(lp17
I9
aI2
aI4
aI0
aa(lp18
I56
aI35
aI22
aI1
aa(lp19
I24
aI9
aI11
aI2
aa(lp20
I47
aI21
aI17
aI0
aa(lp21
I9
aI6
aI4
aI1
aa(lp22
I58
aI30
aI16
aI0
aa(lp23
I7
aI5
aI2
aI0
aa(lp24
I49
aI25
aI20
aI2
aa(lp25
I35
aI28
aI7
aI1
aa(lp26
I57
aI36
aI21
aI0
aa(lp27
I54
aI35
aI21
aI2
aa(lp28
I60
aI29
aI15
aI0
aa(lp29
I57
aI30
aI20
aI2
aa(lp30
I31
aI22
aI11
aI0
aa(lp31
I21
aI8
aI7
aI0
aa(lp32
I5
aI5
aI3
aI2
aa(lp33
I21
aI12
aI16
aI13
aa(lp34
I71
aI62
aI7
aI0
aa(lp35
I74
aI54
aI17
aI0
aa(lp36
I69
aI35
aI28
aI1
aa(lp37
I38
aI29
aI13
aI2
aa(lp38
I50
aI22
aI15
aI0
aa(lp39
I11
aI5
aI3
aI0
aa(lp40
I48
aI31
aI16
aI0
aa(lp41
I18
aI10
aI3
aI0
aa(lp42
I39
aI13
aI19
aI0
aa(lp43
I46
aI31
aI18
aI0
aa(lp44
I76
aI49
aI40
aI0
aa(lp45
I37
aI18
aI12
aI1
aa(lp46
I278
aI153
aI89
aI3
aa(lp47
I26
aI18
aI13
aI2
aa(lp48
I19
aI12
aI5
aI1
aa(lp49
I59
aI40
aI22
aI1
aa(lp50
I34
aI18
aI12
aI0
aa(lp51
I15
aI6
aI7
aI0
aa(lp52
I26
aI15
aI13
aI0
aa(lp53
I30
aI19
aI14
aI1
aa(lp54
I112
aI67
aI35
aI0
aa(lp55
I37
aI27
aI13
aI2
aa(lp56
I77
aI55
aI37
aI1
aa(lp57
I29
aI10
aI12
aI0
aa(lp58
I48
aI30
aI15
aI2
aa(lp59
I5
aI8
aI4
aI2
aa(lp60
I29
aI17
aI12
aI0
aa(lp61
I131
aI69
aI51
aI0
aa(lp62
I16
aI8
aI5
aI1
aa(lp63
I23
aI16
aI9
aI0
aa(lp64
I23
aI17
aI13
aI1
aa(lp65
I20
aI11
aI5
aI0
aa(lp66
I106
aI60
aI46
aI2
aa(lp67
I34
aI16
aI17
aI0
aa(lp68
I12
aI6
aI7
aI1
aa(lp69
I29
aI14
aI10
aI0
aa(lp70
I17
aI9
aI10
aI0
aa(lp71
I51
aI30
aI22
aI1
aa(lp72
I38
aI21
aI16
aI0
aa(lp73
I83
aI57
aI32
aI1
aa(lp74
I44
aI28
aI23
aI1
aa(lp75
I28
aI18
aI13
aI3
aa(lp76
I102
aI69
aI46
aI2
aa(lp77
I66
aI40
aI27
aI0
aa(lp78
I49
aI37
aI19
aI0
aa(lp79
I40
aI22
aI14
aI1
aa(lp80
I46
aI39
aI24
aI4
aa(lp81
I70
aI50
aI25
aI2
aa(lp82
I92
aI68
aI24
aI0
aa(lp83
I12
aI5
aI7
aI0
aa(lp84
I35
aI26
aI19
aI6
aa(lp85
I37
aI9
aI13
aI1
aa(lp86
I78
aI54
aI19
aI1
aa(lp87
I5
aI5
aI4
aI1
aa(lp88
I5
aI5
aI3
aI2
aa(lp89
I72
aI44
aI24
aI2
aa(lp90
I15
aI5
aI5
aI0
aa(lp91
I32
aI19
aI16
aI1
aa(lp92
I36
aI17
aI16
aI2
aa(lp93
I92
aI51
aI27
aI0
aa(lp94
I186
aI117
aI68
aI3
aa(lp95
I17
aI5
aI6
aI1
aa(lp96
I66
aI37
aI19
aI0
aa(lp97
I34
aI20
aI19
aI0
aa(lp98
I59
aI36
aI16
aI1
aa(lp99
I55
aI32
aI19
aI1
aa(lp100
I53
aI44
aI24
aI6
aa(lp101
I62
aI36
aI15
aI1
aa(lp102
I19
aI10
aI7
aI0
aa(lp103
I97
aI49
aI33
aI1
aa(lp104
I14
aI7
aI6
aI1
aa(lp105
I82
aI44
aI27
aI2
aa(lp106
I45
aI33
aI22
aI0
aa(lp107
I8
aI4
aI3
aI0
aa(lp108
I37
aI26
aI18
aI1
aa(lp109
I10
aI6
aI7
aI1
aa(lp110
I12
aI10
aI9
aI3
aa(lp111
I88
aI71
aI29
aI2
aa(lp112
I29
aI12
aI11
aI0
aa(lp113
I78
aI60
aI22
aI1
aa(lp114
I32
aI17
aI15
aI2
aa(lp115
I17
aI12
aI7
aI0
aa(lp116
I13
aI8
aI4
aI0
aa(lp117
I16
aI6
aI11
aI1
aa(lp118
I84
aI44
aI36
aI2
aa(lp119
I12
aI4
aI5
aI0
aa(lp120
I21
aI16
aI11
aI2
aa(lp121
I21
aI16
aI8
aI0
aa(lp122
I71
aI44
aI35
aI2
aa(lp123
I41
aI27
aI20
aI0
aa(lp124
I44
aI29
aI18
aI2
aa(lp125
I47
aI40
aI24
aI1
aa(lp126
I17
aI12
aI9
aI1
aa(lp127
I35
aI17
aI18
aI0
aa(lp128
I37
aI25
aI12
aI0
aa(lp129
I30
aI17
aI16
aI0
aa(lp130
I210
aI112
aI72
aI6
aa(lp131
I19
aI14
aI8
aI0
aa(lp132
I91
aI65
aI30
aI0
aa(lp133
I54
aI24
aI19
aI0
aa(lp134
I12
aI7
aI4
aI0
aa(lp135
I0
aI0
aI6
aI1
aa(lp136
I8
aI4
aI4
aI0
aa(lp137
I28
aI11
aI11
aI0
aa(lp138
I99
aI58
aI29
aI0
aa(lp139
I18
aI5
aI7
aI0
aa(lp140
I16
aI9
aI7
aI1
aa(lp141
I47
aI24
aI22
aI3
aa(lp142
I80
aI49
aI24
aI1
aa(lp143
I51
aI30
aI17
aI2
aa(lp144
I56
aI31
aI24
aI2
aa(lp145
I4
aI5
aI3
aI1
aa(lp146
I84
aI55
aI42
aI0
aa(lp147
I3
aI0
aI2
aI0
aa(lp148
I63
aI39
aI22
aI4
aa(lp149
I99
aI62
aI19
aI0
aa(lp150
I46
aI25
aI20
aI3
aa(lp151
I29
aI24
aI10
aI0
aa(lp152
I38
aI26
aI11
aI1
aa(lp153
I60
aI34
aI22
aI0
aa(lp154
I59
aI35
aI22
aI1
aa(lp155
I18
aI12
aI6
aI0
aa(lp156
I9
aI3
aI3
aI0
aa(lp157
I53
aI29
aI20
aI1
aa(lp158
I18
aI6
aI10
aI0
aa(lp159
I15
aI7
aI6
aI0
aa(lp160
I86
aI50
aI33
aI2
aa(lp161
I35
aI14
aI13
aI0
aa(lp162
I48
aI34
aI23
aI1
aa(lp163
I19
aI6
aI7
aI0
aa(lp164
I52
aI35
aI25
aI2
aa(lp165
I94
aI70
aI27
aI1
aa(lp166
I23
aI11
aI13
aI2
aa(lp167
I242
aI143
aI81
aI7
aa(lp168
I22
aI16
aI12
aI2
aa(lp169
I67
aI41
aI30
aI2
aa(lp170
I25
aI14
aI8
aI0
aa(lp171
I34
aI21
aI18
aI0
aa(lp172
I8
aI2
aI3
aI0
aa(lp173
I52
aI21
aI23
aI2
aa(lp174
I53
aI33
aI17
aI0
aa(lp175
I41
aI21
aI18
aI0
aa(lp176
I37
aI20
aI13
aI0
aa(lp177
I20
aI13
aI5
aI0
aa(lp178
I20
aI8
aI8
aI0
aa(lp179
I59
aI35
aI17
aI2
aa(lp180
I34
aI21
aI9
aI1
aa(lp181
I46
aI24
aI20
aI2
aa(lp182
I42
aI27
aI17
aI1
aa(lp183
I39
aI26
aI20
aI4
aa(lp184
I11
aI8
aI6
aI0
aa(lp185
I22
aI14
aI10
aI2
aa(lp186
I62
aI38
aI22
aI2
aa(lp187
I84
aI54
aI31
aI2
aa(lp188
I47
aI26
aI16
aI3
aa(lp189
I40
aI21
aI17
aI0
aa(lp190
I44
aI31
aI18
aI0
aa(lp191
I52
aI34
aI14
aI0
aa(lp192
I44
aI33
aI20
aI3
aa(lp193
I49
aI28
aI25
aI0
aa(lp194
I42
aI29
aI21
aI3
aa(lp195
I66
aI36
aI20
aI1
aa(lp196
I63
aI36
aI21
aI1
aa(lp197
I43
aI25
aI13
aI0
aa(lp198
I83
aI49
aI24
aI0
aa(lp199
I52
aI31
aI22
aI1
aa(lp200
I38
aI22
aI12
aI0
aa(lp201
I12
aI8
aI7
aI0
aa(lp202
I24
aI16
aI9
aI1
aa(lp203
I34
aI22
aI18
aI1
aa(lp204
I20
aI15
aI11
aI1
aa(lp205
I30
aI21
aI7
aI0
aa(lp206
I41
aI16
aI14
aI1
aa(lp207
I40
aI20
aI20
aI0
aa(lp208
I27
aI13
aI9
aI0
aa(lp209
I36
aI21
aI12
aI1
aa(lp210
I36
aI20
aI16
aI0
aa(lp211
I40
aI21
aI17
aI0
aa(lp212
I7
aI4
aI4
aI0
aa(lp213
I45
aI23
aI18
aI0
aa(lp214
I49
aI33
aI14
aI2
aa(lp215
I42
aI27
aI14
aI0
aa(lp216
I41
aI33
aI21
aI4
aa(lp217
I124
aI70
aI35
aI1
aa(lp218
I31
aI17
aI12
aI0
aa(lp219
I32
aI21
aI12
aI1
aa(lp220
I14
aI8
aI4
aI0
aa(lp221
I37
aI25
aI17
aI0
aa(lp222
I95
aI61
aI44
aI0
aa(lp223
I199
aI121
aI66
aI5
aa(lp224
I30
aI20
aI15
aI3
aa(lp225
I33
aI23
aI16
aI1
aa(lp226
I73
aI48
aI16
aI0
aa(lp227
I50
aI23
aI13
aI3
aa(lp228
I57
aI56
aI15
aI1
aa(lp229
I61
aI27
aI19
aI3
aa(lp230
I68
aI52
aI36
aI8
aa(lp231
I27
aI16
aI14
aI2
aa(lp232
I23
aI17
aI7
aI1
aa(lp233
I16
aI8
aI6
aI0
aa(lp234
I43
aI36
aI22
aI1
aa(lp235
I58
aI32
aI13
aI0
aa(lp236
I22
aI10
aI13
aI0
aa(lp237
I45
aI28
aI22
aI1
aa(lp238
I44
aI27
aI10
aI0
aa(lp239
I61
aI34
aI19
aI0
aa(lp240
I31
aI15
aI14
aI0
aa(lp241
I40
aI27
aI6
aI0
aa(lp242
I20
aI11
aI4
aI0
aa(lp243
I97
aI70
aI40
aI2
aa(lp244
I64
aI32
aI17
aI2
aa.