(lp1
(lp2
I19
aI11
aI6
aI0
aa(lp3
I113
aI78
aI42
aI4
aa(lp4
I62
aI26
aI26
aI3
aa(lp5
I30
aI18
aI18
aI3
aa(lp6
I83
aI51
aI23
aI0
aa(lp7
I56
aI37
aI22
aI1
aa(lp8
I54
aI33
aI15
aI1
aa(lp9
I62
aI38
aI29
aI1
aa(lp10
I41
aI22
aI16
aI1
aa(lp11
I29
aI17
aI8
aI1
aa(lp12
I19
aI12
aI10
aI1
aa(lp13
I8
aI5
aI5
aI1
aa(lp14
I35
aI21
aI12
aI4
aa(lp15
I165
aI97
aI78
aI10
aa(lp16
I117
aI78
aI31
aI0
aa(lp17
I27
aI10
aI14
aI0
aa(lp18
I13
aI9
aI6
aI1
aa(lp19
I42
aI21
aI19
aI2
aa(lp20
I60
aI38
aI30
aI5
aa(lp21
I9
aI2
aI4
aI0
aa(lp22
I56
aI39
aI22
aI1
aa(lp23
I24
aI9
aI11
aI2
aa(lp24
I47
aI21
aI17
aI0
aa(lp25
I94
aI65
aI35
aI0
aa(lp26
I9
aI6
aI4
aI1
aa(lp27
I58
aI30
aI16
aI0
aa(lp28
I7
aI5
aI2
aI0
aa(lp29
I49
aI25
aI20
aI2
aa(lp30
I35
aI28
aI7
aI1
aa(lp31
I57
aI36
aI21
aI0
aa(lp32
I54
aI35
aI21
aI2
aa(lp33
I60
aI30
aI15
aI0
aa(lp34
I57
aI30
aI20
aI3
aa(lp35
I31
aI22
aI11
aI0
aa(lp36
I21
aI8
aI7
aI0
aa(lp37
I32
aI22
aI12
aI0
aa(lp38
I5
aI5
aI3
aI2
aa(lp39
I22
aI21
aI16
aI2
aa(lp40
I71
aI62
aI7
aI0
aa(lp41
I74
aI54
aI17
aI0
aa(lp42
I69
aI36
aI28
aI1
aa(lp43
I38
aI29
aI13
aI2
aa(lp44
I50
aI22
aI15
aI0
aa(lp45
I11
aI5
aI3
aI0
aa(lp46
I48
aI31
aI16
aI0
aa(lp47
I18
aI10
aI3
aI0
aa(lp48
I61
aI35
aI28
aI1
aa(lp49
I39
aI13
aI19
aI2
aa(lp50
I149
aI99
aI58
aI1
aa(lp51
I29
aI19
aI16
aI0
aa(lp52
I46
aI31
aI18
aI0
aa(lp53
I37
aI20
aI18
aI0
aa(lp54
I76
aI49
aI40
aI0
aa(lp55
I37
aI22
aI12
aI3
aa(lp56
I103
aI63
aI31
aI1
aa(lp57
I278
aI153
aI89
aI3
aa(lp58
I51
aI23
aI20
aI0
aa(lp59
I26
aI18
aI13
aI1
aa(lp60
I19
aI12
aI5
aI1
aa(lp61
I59
aI40
aI22
aI1
aa(lp62
I34
aI18
aI12
aI0
aa(lp63
I38
aI13
aI20
aI1
aa(lp64
I15
aI6
aI7
aI0
aa(lp65
I26
aI15
aI13
aI0
aa(lp66
I30
aI19
aI14
aI0
aa(lp67
I112
aI67
aI35
aI0
aa(lp68
I37
aI27
aI13
aI2
aa(lp69
I92
aI71
aI42
aI1
aa(lp70
I637
aI352
aI242
aI116
aa(lp71
I29
aI10
aI12
aI0
aa(lp72
I48
aI30
aI15
aI2
aa(lp73
I5
aI8
aI4
aI2
aa(lp74
I29
aI17
aI12
aI0
aa(lp75
I131
aI69
aI51
aI0
aa(lp76
I16
aI8
aI5
aI1
aa(lp77
I26
aI19
aI9
aI0
aa(lp78
I23
aI17
aI13
aI1
aa(lp79
I20
aI11
aI5
aI0
aa(lp80
I106
aI60
aI46
aI2
aa(lp81
I14
aI11
aI7
aI2
aa(lp82
I34
aI16
aI17
aI0
aa(lp83
I12
aI6
aI7
aI1
aa(lp84
I143
aI95
aI58
aI3
aa(lp85
I29
aI13
aI10
aI0
aa(lp86
I17
aI9
aI10
aI1
aa(lp87
I51
aI30
aI22
aI1
aa(lp88
I38
aI21
aI16
aI0
aa(lp89
I83
aI57
aI32
aI1
aa(lp90
I44
aI28
aI23
aI1
aa(lp91
I98
aI72
aI48
aI1
aa(lp92
I28
aI18
aI13
aI3
aa(lp93
I375
aI181
aI99
aI16
aa(lp94
I102
aI69
aI46
aI2
aa(lp95
I66
aI40
aI27
aI0
aa(lp96
I114
aI72
aI45
aI1
aa(lp97
I49
aI37
aI19
aI0
aa(lp98
I40
aI22
aI14
aI1
aa(lp99
I81
aI44
aI28
aI0
aa(lp100
I46
aI34
aI24
aI0
aa(lp101
I70
aI50
aI25
aI2
aa(lp102
I92
aI68
aI24
aI0
aa(lp103
I12
aI5
aI7
aI0
aa(lp104
I81
aI44
aI25
aI2
aa(lp105
I72
aI45
aI35
aI1
aa(lp106
I35
aI26
aI19
aI6
aa(lp107
I37
aI10
aI13
aI1
aa(lp108
I136
aI78
aI48
aI1
aa(lp109
I78
aI54
aI19
aI1
aa(lp110
I5
aI5
aI4
aI1
aa(lp111
I30
aI17
aI14
aI0
aa(lp112
I5
aI5
aI3
aI2
aa(lp113
I72
aI44
aI24
aI2
aa(lp114
I15
aI5
aI5
aI0
aa(lp115
I73
aI40
aI35
aI3
aa(lp116
I32
aI19
aI16
aI0
aa(lp117
I266
aI211
aI66
aI4
aa(lp118
I11
aI11
aI7
aI1
aa(lp119
I36
aI17
aI16
aI3
aa(lp120
I92
aI51
aI27
aI0
aa(lp121
I186
aI117
aI68
aI3
aa(lp122
I17
aI5
aI6
aI0
aa(lp123
I36
aI17
aI14
aI1
aa(lp124
I26
aI14
aI13
aI1
aa(lp125
I66
aI37
aI19
aI0
aa(lp126
I47
aI18
aI20
aI0
aa(lp127
I34
aI20
aI19
aI0
aa(lp128
I59
aI36
aI16
aI1
aa(lp129
I100
aI77
aI38
aI0
aa(lp130
I21
aI17
aI12
aI3
aa(lp131
I55
aI32
aI19
aI1
aa(lp132
I53
aI44
aI24
aI6
aa(lp133
I62
aI36
aI15
aI1
aa(lp134
I19
aI10
aI7
aI0
aa(lp135
I97
aI49
aI33
aI1
aa(lp136
I14
aI7
aI6
aI1
aa(lp137
I82
aI49
aI27
aI2
aa(lp138
I45
aI33
aI22
aI0
aa(lp139
I8
aI4
aI3
aI0
aa(lp140
I34
aI20
aI17
aI0
aa(lp141
I37
aI26
aI18
aI1
aa(lp142
I10
aI6
aI7
aI1
aa(lp143
I12
aI10
aI9
aI3
aa(lp144
I88
aI71
aI29
aI2
aa(lp145
I20
aI9
aI6
aI0
aa(lp146
I95
aI52
aI31
aI1
aa(lp147
I29
aI12
aI11
aI0
aa(lp148
I78
aI60
aI22
aI1
aa(lp149
I32
aI17
aI15
aI2
aa(lp150
I17
aI12
aI7
aI0
aa(lp151
I67
aI39
aI28
aI2
aa(lp152
I13
aI8
aI4
aI0
aa(lp153
I16
aI6
aI11
aI1
aa(lp154
I84
aI44
aI36
aI2
aa(lp155
I12
aI4
aI5
aI0
aa(lp156
I21
aI15
aI11
aI1
aa(lp157
I21
aI16
aI8
aI0
aa(lp158
I71
aI44
aI35
aI2
aa(lp159
I41
aI27
aI20
aI0
aa(lp160
I44
aI29
aI18
aI2
aa(lp161
I196
aI90
aI72
aI11
aa(lp162
I47
aI40
aI24
aI1
aa(lp163
I27
aI15
aI10
aI0
aa(lp164
I84
aI47
aI25
aI1
aa(lp165
I17
aI12
aI9
aI1
aa(lp166
I35
aI17
aI18
aI0
aa(lp167
I37
aI25
aI12
aI0
aa(lp168
I30
aI17
aI16
aI0
aa(lp169
I210
aI113
aI72
aI6
aa(lp170
I19
aI14
aI8
aI0
aa(lp171
I91
aI65
aI30
aI0
aa(lp172
I54
aI24
aI19
aI0
aa(lp173
I12
aI7
aI4
aI0
aa(lp174
I0
aI0
aI6
aI1
aa(lp175
I84
aI57
aI28
aI2
aa(lp176
I40
aI32
aI12
aI0
aa(lp177
I8
aI4
aI4
aI0
aa(lp178
I70
aI43
aI22
aI0
aa(lp179
I28
aI11
aI11
aI0
aa(lp180
I99
aI58
aI29
aI0
aa(lp181
I107
aI52
aI39
aI1
aa(lp182
I18
aI5
aI7
aI0
aa(lp183
I16
aI9
aI7
aI1
aa(lp184
I47
aI24
aI22
aI2
aa(lp185
I80
aI46
aI24
aI1
aa(lp186
I51
aI30
aI17
aI2
aa(lp187
I56
aI31
aI24
aI2
aa(lp188
I106
aI67
aI35
aI3
aa(lp189
I4
aI5
aI3
aI1
aa(lp190
I91
aI61
aI45
aI1
aa(lp191
I84
aI55
aI42
aI0
aa(lp192
I3
aI0
aI2
aI0
aa(lp193
I104
aI55
aI30
aI1
aa(lp194
I63
aI39
aI22
aI4
aa(lp195
I99
aI62
aI19
aI0
aa(lp196
I47
aI26
aI20
aI3
aa(lp197
I29
aI24
aI10
aI0
aa(lp198
I38
aI26
aI11
aI1
aa(lp199
I43
aI18
aI16
aI1
aa(lp200
I93
aI48
aI38
aI2
aa(lp201
I60
aI34
aI22
aI0
aa(lp202
I68
aI45
aI19
aI0
aa(lp203
I59
aI35
aI22
aI1
aa(lp204
I18
aI12
aI6
aI0
aa(lp205
I9
aI3
aI3
aI0
aa(lp206
I53
aI29
aI20
aI1
aa(lp207
I18
aI6
aI10
aI0
aa(lp208
I15
aI7
aI6
aI0
aa(lp209
I101
aI65
aI33
aI3
aa(lp210
I19
aI11
aI5
aI0
aa(lp211
I35
aI14
aI13
aI0
aa(lp212
I48
aI33
aI23
aI1
aa(lp213
I87
aI51
aI30
aI2
aa(lp214
I19
aI6
aI7
aI0
aa(lp215
I52
aI35
aI25
aI2
aa(lp216
I94
aI70
aI27
aI1
aa(lp217
I23
aI12
aI13
aI2
aa(lp218
I242
aI158
aI83
aI8
aa(lp219
I22
aI16
aI12
aI2
aa(lp220
I11
aI7
aI7
aI1
aa(lp221
I67
aI43
aI30
aI2
aa(lp222
I110
aI81
aI46
aI1
aa(lp223
I25
aI14
aI8
aI0
aa(lp224
I34
aI21
aI18
aI0
aa(lp225
I8
aI2
aI3
aI0
aa(lp226
I52
aI21
aI23
aI2
aa(lp227
I53
aI33
aI17
aI0
aa(lp228
I41
aI21
aI18
aI0
aa(lp229
I60
aI40
aI23
aI0
aa(lp230
I37
aI20
aI13
aI0
aa(lp231
I20
aI13
aI5
aI0
aa(lp232
I20
aI8
aI8
aI0
aa(lp233
I20
aI8
aI9
aI0
aa(lp234
I59
aI33
aI17
aI2
aa(lp235
I17
aI11
aI5
aI0
aa(lp236
I93
aI61
aI32
aI0
aa(lp237
I34
aI21
aI9
aI1
aa(lp238
I46
aI26
aI20
aI2
aa(lp239
I94
aI69
aI30
aI1
aa(lp240
I42
aI27
aI17
aI1
aa(lp241
I39
aI26
aI20
aI4
aa(lp242
I122
aI95
aI67
aI0
aa(lp243
I30
aI17
aI10
aI1
aa(lp244
I11
aI8
aI6
aI0
aa(lp245
I22
aI14
aI10
aI2
aa(lp246
I25
aI15
aI11
aI2
aa(lp247
I119
aI79
aI52
aI0
aa(lp248
I89
aI62
aI42
aI1
aa(lp249
I62
aI38
aI22
aI2
aa(lp250
I84
aI55
aI31
aI1
aa(lp251
I47
aI27
aI16
aI2
aa(lp252
I40
aI21
aI17
aI0
aa(lp253
I44
aI31
aI18
aI0
aa(lp254
I41
aI25
aI16
aI1
aa(lp255
I52
aI34
aI14
aI0
aa(lp256
I269
aI199
aI86
aI1
aa(lp257
I44
aI33
aI20
aI0
aa(lp258
I9
aI6
aI4
aI0
aa(lp259
I97
aI58
aI33
aI1
aa(lp260
I49
aI28
aI25
aI0
aa(lp261
I42
aI29
aI21
aI3
aa(lp262
I66
aI36
aI20
aI1
aa(lp263
I63
aI36
aI21
aI1
aa(lp264
I43
aI25
aI13
aI0
aa(lp265
I83
aI50
aI24
aI0
aa(lp266
I52
aI31
aI22
aI1
aa(lp267
I38
aI22
aI12
aI0
aa(lp268
I263
aI155
aI103
aI1
aa(lp269
I12
aI8
aI7
aI0
aa(lp270
I24
aI16
aI9
aI1
aa(lp271
I34
aI22
aI18
aI1
aa(lp272
I20
aI15
aI11
aI1
aa(lp273
I30
aI21
aI7
aI0
aa(lp274
I41
aI16
aI14
aI1
aa(lp275
I40
aI20
aI20
aI0
aa(lp276
I27
aI13
aI9
aI0
aa(lp277
I36
aI21
aI12
aI1
aa(lp278
I36
aI20
aI16
aI0
aa(lp279
I16
aI9
aI8
aI1
aa(lp280
I40
aI21
aI17
aI0
aa(lp281
I7
aI4
aI4
aI0
aa(lp282
I56
aI34
aI24
aI1
aa(lp283
I49
aI33
aI14
aI2
aa(lp284
I42
aI27
aI14
aI0
aa(lp285
I41
aI29
aI21
aI0
aa(lp286
I125
aI71
aI35
aI1
aa(lp287
I31
aI17
aI12
aI0
aa(lp288
I15
aI7
aI7
aI0
aa(lp289
I115
aI71
aI41
aI5
aa(lp290
I32
aI21
aI12
aI1
aa(lp291
I14
aI8
aI4
aI0
aa(lp292
I81
aI59
aI40
aI1
aa(lp293
I37
aI25
aI17
aI0
aa(lp294
I95
aI62
aI44
aI0
aa(lp295
I199
aI121
aI66
aI3
aa(lp296
I30
aI20
aI15
aI3
aa(lp297
I33
aI23
aI16
aI1
aa(lp298
I73
aI46
aI16
aI0
aa(lp299
I58
aI32
aI28
aI2
aa(lp300
I50
aI23
aI13
aI3
aa(lp301
I57
aI56
aI15
aI1
aa(lp302
I62
aI28
aI19
aI2
aa(lp303
I86
aI48
aI32
aI1
aa(lp304
I67
aI52
aI36
aI8
aa(lp305
I27
aI16
aI14
aI2
aa(lp306
I23
aI17
aI7
aI1
aa(lp307
I16
aI8
aI6
aI0
aa(lp308
I43
aI34
aI22
aI1
aa(lp309
I55
aI40
aI16
aI0
aa(lp310
I58
aI32
aI13
aI0
aa(lp311
I22
aI10
aI13
aI0
aa(lp312
I45
aI29
aI22
aI1
aa(lp313
I44
aI27
aI10
aI0
aa(lp314
I98
aI76
aI33
aI0
aa(lp315
I61
aI34
aI19
aI0
aa(lp316
I31
aI15
aI14
aI0
aa(lp317
I40
aI28
aI6
aI0
aa(lp318
I20
aI10
aI6
aI0
aa(lp319
I36
aI24
aI16
aI2
aa(lp320
I97
aI68
aI40
aI1
aa(lp321
I65
aI37
aI17
aI1
aa.